BL51 BANKED LINKER/LOCATER V6.22.4.0                                                    12/05/2023  18:57:17  PAGE 1


BL51 BANKED LINKER/LOCATER V6.22.4.0, INVOKED BY:
F:\KEIL5\C51\BIN\BL51.EXE .\Objects\main.obj, .\Objects\Timer0.obj, .\Objects\Inde_Key.obj, .\Objects\Delay.obj TO .\Obj
>> ects\project PRINT (.\Listings\project.m51) RAMSIZE (256)


MEMORY MODEL: SMALL


INPUT MODULES INCLUDED:
  .\Objects\main.obj (MAIN)
  .\Objects\Timer0.obj (TIMER0)
  .\Objects\Inde_Key.obj (INDE_KEY)
  .\Objects\Delay.obj (DELAY)
  F:\KEIL5\C51\LIB\C51S.LIB (?C_STARTUP)
  F:\KEIL5\C51\LIB\C51S.LIB (?C_INIT)


LINK MAP OF MODULE:  .\Objects\project (MAIN)


            TYPE    BASE      LENGTH    RELOCATION   SEGMENT NAME
            -----------------------------------------------------

            * * * * * * *   D A T A   M E M O R Y   * * * * * * *
            REG     0000H     0008H     ABSOLUTE     "REG BANK 0"
            DATA    0008H     0004H     UNIT         ?DT?MAIN
            DATA    000CH     0001H     UNIT         _DATA_GROUP_
            IDATA   000DH     0001H     UNIT         ?STACK

            * * * * * * *   C O D E   M E M O R Y   * * * * * * *
            CODE    0000H     0003H     ABSOLUTE     
                    0003H     0008H                  *** GAP ***
            CODE    000BH     0003H     ABSOLUTE     
            CODE    000EH     008CH     UNIT         ?C_C51STARTUP
            CODE    009AH     0054H     UNIT         ?PR?TIMER0_ISR?MAIN
            CODE    00EEH     0044H     UNIT         ?PR?INDE_KEY?INDE_KEY
            CODE    0132H     001EH     UNIT         ?PR?MAIN?MAIN
            CODE    0150H     001AH     UNIT         ?PR?TIMER0_INIT?TIMER0
            CODE    016AH     001AH     UNIT         ?PR?_DELAY?DELAY
            CODE    0184H     000BH     UNIT         ?C_INITSEG



OVERLAY MAP OF MODULE:   .\Objects\project (MAIN)


SEGMENT                          DATA_GROUP 
  +--> CALLED SEGMENT          START    LENGTH
----------------------------------------------
?C_C51STARTUP                  -----    -----
  +--> ?PR?MAIN?MAIN
  +--> ?C_INITSEG

?PR?MAIN?MAIN                  -----    -----
  +--> ?PR?TIMER0_INIT?TIMER0
  +--> ?PR?INDE_KEY?INDE_KEY

?PR?INDE_KEY?INDE_KEY          000CH    0001H
BL51 BANKED LINKER/LOCATER V6.22.4.0                                                  12/05/2023  18:57:17  PAGE 2


  +--> ?PR?_DELAY?DELAY



SYMBOL TABLE OF MODULE:  .\Objects\project (MAIN)

  VALUE           TYPE          NAME
  ----------------------------------

  -------         MODULE        MAIN
  C:0000H         SYMBOL        _ICE_DUMMY_
  D:0080H         PUBLIC        P0
  D:0090H         PUBLIC        P1
  D:00A0H         PUBLIC        P2
  D:00B0H         PUBLIC        P3
  D:00E8H         PUBLIC        P4
  D:00A8H         PUBLIC        IE
  D:00B8H         PUBLIC        IP
  C:0132H         PUBLIC        main
  D:0098H         PUBLIC        SCON
  D:0088H         PUBLIC        TCON
  C:009AH         PUBLIC        Timer0_Isr
  D:008CH         PUBLIC        TH0
  D:008AH         PUBLIC        TL0
  D:000AH         PUBLIC        KeyNum
  D:000BH         PUBLIC        LEDMode
  D:00C8H         PUBLIC        T2CON
  D:00D0H         PUBLIC        PSW
  -------         PROC          MAIN
  C:0132H         LINE#         57
  C:0132H         LINE#         58
  C:0132H         LINE#         59
  C:0135H         LINE#         60
  C:0138H         LINE#         64
  C:0138H         LINE#         65
  C:0138H         LINE#         66
  C:013DH         LINE#         67
  C:0141H         LINE#         68
  C:0141H         LINE#         69
  C:0144H         LINE#         70
  C:0144H         LINE#         71
  C:0146H         LINE#         72
  C:014BH         LINE#         73
  C:014BH         LINE#         74
  C:014EH         LINE#         75
  C:014EH         LINE#         76
  C:014EH         LINE#         77
  C:014EH         LINE#         79
  -------         ENDPROC       MAIN
  -------         PROC          TIMER0_ISR
  -------         DO            
  D:0008H         SYMBOL        T0_count
  -------         ENDDO         
  C:009AH         LINE#         83
  C:00A5H         LINE#         88
  C:00A8H         LINE#         91
  C:00ABH         LINE#         93
BL51 BANKED LINKER/LOCATER V6.22.4.0                                                  12/05/2023  18:57:17  PAGE 3


  C:00B3H         LINE#         94
  C:00BCH         LINE#         95
  C:00BCH         LINE#         96
  C:00C2H         LINE#         97
  C:00C6H         LINE#         98
  C:00C6H         LINE#         99
  C:00D3H         LINE#         102
  C:00D3H         LINE#         103
  C:00D8H         LINE#         104
  C:00D8H         LINE#         105
  C:00E5H         LINE#         107
  C:00E5H         LINE#         109
  C:00E5H         LINE#         110
  -------         ENDPROC       TIMER0_ISR
  -------         ENDMOD        MAIN

  -------         MODULE        TIMER0
  C:0000H         SYMBOL        _ICE_DUMMY_
  D:0080H         PUBLIC        P0
  D:0090H         PUBLIC        P1
  D:00A0H         PUBLIC        P2
  D:00B0H         PUBLIC        P3
  D:00E8H         PUBLIC        P4
  B:00A8H.7       PUBLIC        EA
  D:00A8H         PUBLIC        IE
  D:00B8H         PUBLIC        IP
  C:0150H         PUBLIC        Timer0_Init
  D:0098H         PUBLIC        SCON
  D:0089H         PUBLIC        TMOD
  D:0088H         PUBLIC        TCON
  D:008EH         PUBLIC        AUXR
  B:00A8H.1       PUBLIC        ET0
  B:0088H.5       PUBLIC        TF0
  D:008CH         PUBLIC        TH0
  D:008AH         PUBLIC        TL0
  B:00B8H.1       PUBLIC        PT0
  B:0088H.4       PUBLIC        TR0
  D:00C8H         PUBLIC        T2CON
  D:00D0H         PUBLIC        PSW
  -------         PROC          TIMER0_INIT
  C:0150H         LINE#         9
  C:0150H         LINE#         10
  C:0150H         LINE#         11
  C:0153H         LINE#         12
  C:0156H         LINE#         13
  C:0159H         LINE#         14
  C:015CH         LINE#         15
  C:015FH         LINE#         16
  C:0161H         LINE#         17
  C:0163H         LINE#         18
  C:0165H         LINE#         19
  C:0167H         LINE#         20
  C:0169H         LINE#         21
  -------         ENDPROC       TIMER0_INIT
  -------         ENDMOD        TIMER0

  -------         MODULE        INDE_KEY
BL51 BANKED LINKER/LOCATER V6.22.4.0                                                  12/05/2023  18:57:17  PAGE 4


  C:0000H         SYMBOL        _ICE_DUMMY_
  D:0080H         PUBLIC        P0
  D:0090H         PUBLIC        P1
  D:00A0H         PUBLIC        P2
  D:00B0H         PUBLIC        P3
  D:00E8H         PUBLIC        P4
  C:00EEH         PUBLIC        Inde_Key
  D:00A8H         PUBLIC        IE
  D:00B8H         PUBLIC        IP
  B:00B0H.0       PUBLIC        P30
  D:0098H         PUBLIC        SCON
  B:00B0H.1       PUBLIC        P31
  D:0088H         PUBLIC        TCON
  B:00B0H.2       PUBLIC        P32
  B:00B0H.3       PUBLIC        P33
  D:00C8H         PUBLIC        T2CON
  D:00D0H         PUBLIC        PSW
  -------         PROC          INDE_KEY
  -------         DO            
  D:000CH         SYMBOL        KeyNumber
  -------         ENDDO         
  C:00EEH         LINE#         11
  C:00EEH         LINE#         12
  C:00EEH         LINE#         13
  C:00F1H         LINE#         15
  C:00FDH         LINE#         16
  C:00FDH         LINE#         17
  C:0104H         LINE#         18
  C:0107H         LINE#         19
  C:010AH         LINE#         20
  C:010DH         LINE#         21
  C:0110H         LINE#         22
  C:0113H         LINE#         23
  C:0116H         LINE#         24
  C:0119H         LINE#         25
  C:011CH         LINE#         27
  C:0128H         LINE#         28
  C:012FH         LINE#         29
  C:012FH         LINE#         31
  C:0131H         LINE#         32
  -------         ENDPROC       INDE_KEY
  -------         ENDMOD        INDE_KEY

  -------         MODULE        DELAY
  C:0000H         SYMBOL        _ICE_DUMMY_
  D:0080H         PUBLIC        P0
  D:0090H         PUBLIC        P1
  D:00A0H         PUBLIC        P2
  D:00B0H         PUBLIC        P3
  D:00E8H         PUBLIC        P4
  D:00A8H         PUBLIC        IE
  D:00B8H         PUBLIC        IP
  D:0098H         PUBLIC        SCON
  D:0088H         PUBLIC        TCON
  D:00C8H         PUBLIC        T2CON
  C:016AH         PUBLIC        _Delay
  D:00D0H         PUBLIC        PSW
BL51 BANKED LINKER/LOCATER V6.22.4.0                                                  12/05/2023  18:57:17  PAGE 5


  -------         PROC          _DELAY
  D:0006H         SYMBOL        xms
  -------         DO            
  D:0005H         SYMBOL        i
  D:0004H         SYMBOL        j
  -------         ENDDO         
  C:016AH         LINE#         5
  C:016AH         LINE#         6
  C:016AH         LINE#         9
  C:0173H         LINE#         10
  C:0173H         LINE#         11
  C:0174H         LINE#         12
  C:0176H         LINE#         13
  C:0178H         LINE#         15
  C:0178H         LINE#         16
  C:017AH         LINE#         17
  C:017CH         LINE#         19
  C:0181H         LINE#         20
  C:0183H         LINE#         21
  -------         ENDPROC       _DELAY
  -------         ENDMOD        DELAY

Program Size: data=14.0 xdata=0 code=391
LINK/LOCATE RUN COMPLETE.  0 WARNING(S),  0 ERROR(S)
